target datalayout = "e-m:e-p270:32:32-p271:32:32-p272:64:64-i64:64-i128:128-f80:128-n8:16:32:64-S128"
target triple = "x86_64-pc-linux-gnu"

%"class.absl::lts_20240722::Status" = type { i64 }
%"class.std::__cxx11::basic_string" = type { %"struct.std::__cxx11::basic_string<char>::_Alloc_hider", i64, %union.anon }
%"struct.std::__cxx11::basic_string<char>::_Alloc_hider" = type { ptr }
%union.anon = type { i64, [8 x i8] }
%"class.std::optional" = type { %"struct.std::_Optional_base" }
%"struct.std::_Optional_base" = type { %"struct.std::_Optional_payload" }
%"struct.std::_Optional_payload" = type { %"struct.std::_Optional_payload_base.base", [7 x i8] }
%"struct.std::_Optional_payload_base.base" = type <{ %"union.std::_Optional_payload_base<long>::_Storage", i8 }>
%"union.std::_Optional_payload_base<long>::_Storage" = type { i64 }
%"class.absl::lts_20240722::status_internal::StatusRep" = type { %"struct.std::atomic", i32, %"class.std::__cxx11::basic_string", %"class.std::unique_ptr.15" }
%"struct.std::atomic" = type { %"struct.std::__atomic_base" }
%"struct.std::__atomic_base" = type { i32 }
%"class.std::unique_ptr.15" = type { %"struct.std::__uniq_ptr_data.16" }
%"struct.std::__uniq_ptr_data.16" = type { %"class.std::__uniq_ptr_impl.17" }
%"class.std::__uniq_ptr_impl.17" = type { %"class.std::tuple.18" }
%"class.std::tuple.18" = type { %"struct.std::_Tuple_impl.19" }
%"struct.std::_Tuple_impl.19" = type { %"struct.std::_Head_base.22" }
%"struct.std::_Head_base.22" = type { ptr }
%"struct.std::_Optional_payload_base" = type <{ %"union.std::_Optional_payload_base<long>::_Storage", i8, [7 x i8] }>

; Function Attrs: mustprogress nounwind uwtable
define linkonce_odr noundef i32 @_ZNK4absl12lts_2024072215status_internal9StatusRep4codeEv(ptr noundef nonnull align 8 dereferenceable(48) %0) #7 comdat align 2 {
  %2 = alloca ptr, align 8
  store ptr %0, ptr %2, align 8, !tbaa !79
  %3 = load ptr, ptr %2, align 8
  %4 = getelementptr inbounds nuw %"class.absl::lts_20240722::status_internal::StatusRep", ptr %3, i32 0, i32 1
  %5 = load i32, ptr %4, align 4, !tbaa !94
  ret i32 %5
}

; Function Attrs: inlinehint mustprogress nounwind uwtable
define linkonce_odr noundef ptr @_ZN4absl12lts_202407226Status12RepToPointerEm(i64 noundef %0) #10 comdat align 2 {
  %2 = alloca i64, align 8
  store i64 %0, ptr %2, align 8, !tbaa !10
  %3 = load i64, ptr %2, align 8, !tbaa !10
  %4 = inttoptr i64 %3 to ptr
  ret ptr %4
}

; Function Attrs: mustprogress nounwind uwtable
define linkonce_odr noundef i32 @_ZN4absl12lts_202407226Status16InlinedRepToCodeEm(i64 noundef %0) #7 comdat align 2 {
  %2 = alloca i64, align 8
  store i64 %0, ptr %2, align 8, !tbaa !10
  %3 = load i64, ptr %2, align 8, !tbaa !10
  %4 = lshr i64 %3, 2
  %5 = trunc i64 %4 to i32
  ret i32 %5
}

; Function Attrs: mustprogress nounwind uwtable
define linkonce_odr noundef zeroext i1 @_ZN4absl12lts_202407226Status9IsInlinedEm(i64 noundef %0) #7 comdat align 2 {
  %2 = alloca i64, align 8
  store i64 %0, ptr %2, align 8, !tbaa !10
  %3 = load i64, ptr %2, align 8, !tbaa !10
  %4 = and i64 %3, 1
  %5 = icmp ne i64 %4, 0
  ret i1 %5
}

; Function Attrs: mustprogress nounwind uwtable
define linkonce_odr noundef nonnull align 8 dereferenceable(8) ptr @_ZNSt22_Optional_payload_baseIlE6_M_getEv(ptr noundef nonnull align 8 dereferenceable(9) %0) #7 comdat align 2 {
  %2 = alloca ptr, align 8
  store ptr %0, ptr %2, align 8, !tbaa !92
  %3 = load ptr, ptr %2, align 8
  %4 = getelementptr inbounds nuw %"struct.std::_Optional_payload_base", ptr %3, i32 0, i32 0
  ret ptr %4
}

; Function Attrs: inlinehint mustprogress uwtable
define linkonce_odr noundef i32 @_ZNK4absl12lts_202407226Status8raw_codeEv(ptr noundef nonnull align 8 dereferenceable(8) %0) #9 comdat align 2 {
  %2 = alloca i32, align 4
  %3 = alloca ptr, align 8
  store ptr %0, ptr %3, align 8, !tbaa !12
  %4 = load ptr, ptr %3, align 8
  %5 = getelementptr inbounds nuw %"class.absl::lts_20240722::Status", ptr %4, i32 0, i32 0
  %6 = load i64, ptr %5, align 8, !tbaa !24
  %7 = call noundef zeroext i1 @_ZN4absl12lts_202407226Status9IsInlinedEm(i64 noundef %6)
  br i1 %7, label %8, label %12

8:                                                ; preds = %1
  %9 = getelementptr inbounds nuw %"class.absl::lts_20240722::Status", ptr %4, i32 0, i32 0
  %10 = load i64, ptr %9, align 8, !tbaa !24
  %11 = call noundef i32 @_ZN4absl12lts_202407226Status16InlinedRepToCodeEm(i64 noundef %10)
  store i32 %11, ptr %2, align 4
  br label %17

12:                                               ; preds = %1
  %13 = getelementptr inbounds nuw %"class.absl::lts_20240722::Status", ptr %4, i32 0, i32 0
  %14 = load i64, ptr %13, align 8, !tbaa !24
  %15 = call noundef ptr @_ZN4absl12lts_202407226Status12RepToPointerEm(i64 noundef %14)
  %16 = call noundef i32 @_ZNK4absl12lts_2024072215status_internal9StatusRep4codeEv(ptr noundef nonnull align 8 dereferenceable(48) %15)
  store i32 %16, ptr %2, align 4
  br label %17

17:                                               ; preds = %12, %8
  %18 = load i32, ptr %2, align 4
  ret i32 %18
}

; Function Attrs: mustprogress nounwind uwtable
define linkonce_odr noundef nonnull align 8 dereferenceable(8) ptr @_ZNSt19_Optional_base_implIlSt14_Optional_baseIlLb1ELb1EEE6_M_getEv(ptr noundef nonnull align 1 dereferenceable(1) %0) #7 comdat align 2 {
  %2 = alloca ptr, align 8
  store ptr %0, ptr %2, align 8, !tbaa !85
  %3 = load ptr, ptr %2, align 8
  br label %4

4:                                                ; preds = %1
  br label %5

5:                                                ; preds = %4
  br label %6

6:                                                ; preds = %5
  %7 = getelementptr inbounds nuw %"struct.std::_Optional_base", ptr %3, i32 0, i32 0
  %8 = call noundef nonnull align 8 dereferenceable(8) ptr @_ZNSt22_Optional_payload_baseIlE6_M_getEv(ptr noundef nonnull align 8 dereferenceable(9) %7) #3
  ret ptr %8
}

; Function Attrs: mustprogress nounwind uwtable
define linkonce_odr noundef zeroext i1 @_ZNKSt19_Optional_base_implIlSt14_Optional_baseIlLb1ELb1EEE13_M_is_engagedEv(ptr noundef nonnull align 1 dereferenceable(1) %0) #7 comdat align 2 {
  %2 = alloca ptr, align 8
  store ptr %0, ptr %2, align 8, !tbaa !85
  %3 = load ptr, ptr %2, align 8
  %4 = getelementptr inbounds nuw %"struct.std::_Optional_base", ptr %3, i32 0, i32 0
  %5 = getelementptr inbounds nuw %"struct.std::_Optional_payload_base", ptr %4, i32 0, i32 1
  %6 = load i8, ptr %5, align 8, !tbaa !87, !range !90, !noundef !91
  %7 = trunc i8 %6 to i1
  ret i1 %7
}

; Function Attrs: inlinehint mustprogress uwtable
define linkonce_odr noundef i32 @_ZNK4absl12lts_202407226Status4codeEv(ptr noundef nonnull align 8 dereferenceable(8) %0) #9 comdat align 2 {
  %2 = alloca ptr, align 8
  store ptr %0, ptr %2, align 8, !tbaa !12
  %3 = load ptr, ptr %2, align 8
  %4 = call noundef i32 @_ZNK4absl12lts_202407226Status8raw_codeEv(ptr noundef nonnull align 8 dereferenceable(8) %3)
  %5 = call noundef i32 @_ZN4absl12lts_2024072215status_internal14MapToLocalCodeEi(i32 noundef %4)
  ret i32 %5
}

; Function Attrs: mustprogress nounwind uwtable
define linkonce_odr noundef nonnull align 8 dereferenceable(8) ptr @_ZNRSt8optionalIlEdeEv(ptr noundef nonnull align 8 dereferenceable(16) %0) #7 comdat align 2 {
  %2 = alloca ptr, align 8
  store ptr %0, ptr %2, align 8, !tbaa !44
  %3 = load ptr, ptr %2, align 8
  %4 = call noundef nonnull align 8 dereferenceable(8) ptr @_ZNSt19_Optional_base_implIlSt14_Optional_baseIlLb1ELb1EEE6_M_getEv(ptr noundef nonnull align 1 dereferenceable(1) %3) #3
  ret ptr %4
}

; Function Attrs: mustprogress nounwind uwtable
define linkonce_odr noundef zeroext i1 @_ZNKSt8optionalIlE9has_valueEv(ptr noundef nonnull align 8 dereferenceable(16) %0) #7 comdat align 2 {
  %2 = alloca ptr, align 8
  store ptr %0, ptr %2, align 8, !tbaa !44
  %3 = load ptr, ptr %2, align 8
  %4 = call noundef zeroext i1 @_ZNKSt19_Optional_base_implIlSt14_Optional_baseIlLb1ELb1EEE13_M_is_engagedEv(ptr noundef nonnull align 1 dereferenceable(1) %3) #3
  ret i1 %4
}

; Function Attrs: mustprogress uwtable
define noundef zeroext i1 @_Z18grpc_error_get_intN4absl12lts_202407226StatusEN9grpc_core17StatusIntPropertyEPl(ptr noundef %0, i32 noundef %1, ptr noundef %2) #4 {
  %4 = alloca i1, align 1
  %5 = alloca ptr, align 8
  %6 = alloca i32, align 4
  %7 = alloca ptr, align 8
  %8 = alloca %"class.std::optional", align 8
  %9 = alloca i32, align 4
  store ptr %0, ptr %5, align 8, !tbaa !12
  store i32 %1, ptr %6, align 4, !tbaa !36
  store ptr %2, ptr %7, align 8, !tbaa !42
  call void @llvm.lifetime.start.p0(i64 16, ptr %8) #3
  %10 = load i32, ptr %6, align 4, !tbaa !36
  %11 = call { i64, i8 } @_ZN9grpc_core12StatusGetIntERKN4absl12lts_202407226StatusENS_17StatusIntPropertyE(ptr noundef nonnull align 8 dereferenceable(8) %0, i32 noundef %10)
  %12 = getelementptr inbounds nuw %"class.std::optional", ptr %8, i32 0, i32 0
  %13 = getelementptr inbounds nuw %"struct.std::_Optional_base", ptr %12, i32 0, i32 0
  %14 = getelementptr inbounds nuw { i64, i8 }, ptr %13, i32 0, i32 0
  %15 = extractvalue { i64, i8 } %11, 0
  store i64 %15, ptr %14, align 8
  %16 = getelementptr inbounds nuw { i64, i8 }, ptr %13, i32 0, i32 1
  %17 = extractvalue { i64, i8 } %11, 1
  store i8 %17, ptr %16, align 8
  %18 = call noundef zeroext i1 @_ZNKSt8optionalIlE9has_valueEv(ptr noundef nonnull align 8 dereferenceable(16) %8) #3
  br i1 %18, label %19, label %23

19:                                               ; preds = %3
  %20 = call noundef nonnull align 8 dereferenceable(8) ptr @_ZNRSt8optionalIlEdeEv(ptr noundef nonnull align 8 dereferenceable(16) %8) #3
  %21 = load i64, ptr %20, align 8, !tbaa !10
  %22 = load ptr, ptr %7, align 8, !tbaa !42
  store i64 %21, ptr %22, align 8, !tbaa !10
  store i1 true, ptr %4, align 1
  store i32 1, ptr %9, align 4
  br label %37

23:                                               ; preds = %3
  %24 = load i32, ptr %6, align 4, !tbaa !36
  %25 = icmp eq i32 %24, 2
  br i1 %25, label %26, label %36

26:                                               ; preds = %23
  %27 = call noundef i32 @_ZNK4absl12lts_202407226Status4codeEv(ptr noundef nonnull align 8 dereferenceable(8) %0)
  switch i32 %27, label %34 [
    i32 0, label %28
    i32 8, label %30
    i32 1, label %32
  ]

28:                                               ; preds = %26
  %29 = load ptr, ptr %7, align 8, !tbaa !42
  store i64 0, ptr %29, align 8, !tbaa !10
  store i1 true, ptr %4, align 1
  store i32 1, ptr %9, align 4
  br label %37

30:                                               ; preds = %26
  %31 = load ptr, ptr %7, align 8, !tbaa !42
  store i64 8, ptr %31, align 8, !tbaa !10
  store i1 true, ptr %4, align 1
  store i32 1, ptr %9, align 4
  br label %37

32:                                               ; preds = %26
  %33 = load ptr, ptr %7, align 8, !tbaa !42
  store i64 1, ptr %33, align 8, !tbaa !10
  store i1 true, ptr %4, align 1
  store i32 1, ptr %9, align 4
  br label %37

34:                                               ; preds = %26
  br label %35

35:                                               ; preds = %34
  br label %36

36:                                               ; preds = %35, %23
  store i1 false, ptr %4, align 1
  store i32 1, ptr %9, align 4
  br label %37

37:                                               ; preds = %36, %32, %30, %28, %19
  call void @llvm.lifetime.end.p0(i64 16, ptr %8) #3
  %38 = load i1, ptr %4, align 1
  ret i1 %38
}