; Function Attrs: mustprogress uwtable
define noundef zeroext i1 @_Z18grpc_error_get_intN4absl12lts_202407226StatusEN9grpc_core17StatusIntPropertyEPl(ptr noundef nonnull %0, i32 noundef %1, ptr noundef writeonly captures(none) %2) local_unnamed_addr #3 {
  %4 = tail call { i64, i8 } @_ZN9grpc_core12StatusGetIntERKN4absl12lts_202407226StatusENS_17StatusIntPropertyE(ptr noundef nonnull align 8 dereferenceable(8) %0, i32 noundef %1)
  %5 = extractvalue { i64, i8 } %4, 1
  %6 = trunc nuw i8 %5 to i1
  br i1 %6, label %7, label %9

7:                                                ; preds = %3
  %8 = extractvalue { i64, i8 } %4, 0
  br label %.sink.split

9:                                                ; preds = %3
  %10 = icmp eq i32 %1, 2
  br i1 %10, label %11, label %24

11:                                               ; preds = %9
  %12 = load i64, ptr %0, align 8, !tbaa !10
  %13 = and i64 %12, 1
  %.not.i.i = icmp eq i64 %13, 0
  br i1 %.not.i.i, label %17, label %14

14:                                               ; preds = %11
  %15 = lshr i64 %12, 2
  %16 = trunc i64 %15 to i32
  br label %_ZNK4absl12lts_202407226Status4codeEv.exit

17:                                               ; preds = %11
  %18 = inttoptr i64 %12 to ptr
  %19 = getelementptr inbounds nuw i8, ptr %18, i64 4
  %20 = load i32, ptr %19, align 4, !tbaa !29
  br label %_ZNK4absl12lts_202407226Status4codeEv.exit

_ZNK4absl12lts_202407226Status4codeEv.exit:       ; preds = %14, %17
  %.0.i.i = phi i32 [ %16, %14 ], [ %20, %17 ]
  %21 = tail call noundef i32 @_ZN4absl12lts_2024072215status_internal14MapToLocalCodeEi(i32 noundef %.0.i.i)
  switch i32 %21, label %24 [
    i32 0, label %.sink.split
    i32 8, label %22
    i32 1, label %23
  ]

22:                                               ; preds = %_ZNK4absl12lts_202407226Status4codeEv.exit
  br label %.sink.split

23:                                               ; preds = %_ZNK4absl12lts_202407226Status4codeEv.exit
  br label %.sink.split

.sink.split:                                      ; preds = %_ZNK4absl12lts_202407226Status4codeEv.exit, %7, %22, %23
  %.sink = phi i64 [ 1, %23 ], [ 8, %22 ], [ %8, %7 ], [ 0, %_ZNK4absl12lts_202407226Status4codeEv.exit ]
  store i64 %.sink, ptr %2, align 8, !tbaa !42
  br label %24

24:                                               ; preds = %.sink.split, %9, %_ZNK4absl12lts_202407226Status4codeEv.exit
  %.0 = phi i1 [ false, %_ZNK4absl12lts_202407226Status4codeEv.exit ], [ false, %9 ], [ true, %.sink.split ]
  ret i1 %.0
}